target datalayout = "e-m:e-p270:32:32-p271:32:32-p272:64:64-i64:64-i128:128-f80:128-n8:16:32:64-S128"
target triple = "x86_64-unknown-linux-gnu"

%"class.icu_75::UnicodeString" = type { %"class.icu_75::Replaceable", %"union.icu_75::UnicodeString::StackBufferOrFields" }
%"class.icu_75::Replaceable" = type { %"class.icu_75::UObject" }
%"class.icu_75::UObject" = type { ptr }
%"union.icu_75::UnicodeString::StackBufferOrFields" = type { %struct.anon.0, [32 x i8] }
%struct.anon.0 = type { i16, i32, i32, ptr }
%struct.anon = type { i16, [27 x i16] }

@.str = private unnamed_addr constant [1 x i8] zeroinitializer, align 1
@_ZTVN6icu_7513UnicodeStringE = external unnamed_addr constant { [13 x ptr] }, align 8
@_ZTVN6icu_7511ReplaceableE = external unnamed_addr constant { [13 x ptr] }, align 8
@_ZTVN6icu_757UObjectE = external unnamed_addr constant { [5 x ptr] }, align 8

; Function Attrs: mustprogress nounwind uwtable
define linkonce_odr void @_ZN6icu_757UObjectC2Ev(ptr noundef nonnull align 8 dereferenceable(8) %this) unnamed_addr #0 comdat align 2 {
entry:
  %this.addr = alloca ptr, align 8
  store ptr %this, ptr %this.addr, align 8
  %this1 = load ptr, ptr %this.addr, align 8
  store ptr getelementptr inbounds ({ [5 x ptr] }, ptr @_ZTVN6icu_757UObjectE, i32 0, i32 0, i32 2), ptr %this1, align 8
  ret void
}

; Function Attrs: mustprogress nounwind uwtable
define linkonce_odr void @_ZN6icu_7511ReplaceableC2Ev(ptr noundef nonnull align 8 dereferenceable(8) %this) unnamed_addr #0 comdat align 2 {
entry:
  %this.addr = alloca ptr, align 8
  store ptr %this, ptr %this.addr, align 8
  %this1 = load ptr, ptr %this.addr, align 8
  call void @_ZN6icu_757UObjectC2Ev(ptr noundef nonnull align 8 dereferenceable(8) %this1) #14
  store ptr getelementptr inbounds ({ [13 x ptr] }, ptr @_ZTVN6icu_7511ReplaceableE, i32 0, i32 0, i32 2), ptr %this1, align 8
  ret void
}

; Function Attrs: mustprogress nounwind uwtable
define linkonce_odr noundef signext i8 @_ZNK6icu_7513UnicodeString7isBogusEv(ptr noundef nonnull align 8 dereferenceable(64) %this) #0 comdat align 2 {
entry:
  %this.addr = alloca ptr, align 8
  store ptr %this, ptr %this.addr, align 8
  %this1 = load ptr, ptr %this.addr, align 8
  %fUnion = getelementptr inbounds %"class.icu_75::UnicodeString", ptr %this1, i32 0, i32 1
  %fLengthAndFlags = getelementptr inbounds %struct.anon.0, ptr %fUnion, i32 0, i32 0
  %0 = load i16, ptr %fLengthAndFlags, align 8
  %conv = sext i16 %0 to i32
  %and = and i32 %conv, 1
  %conv2 = trunc i32 %and to i8
  ret i8 %conv2
}

; Function Attrs: mustprogress uwtable
define linkonce_odr void @_ZN6icu_7513UnicodeStringC2Ev(ptr noundef nonnull align 8 dereferenceable(64) %this) unnamed_addr #1 comdat align 2 {
entry:
  %this.addr = alloca ptr, align 8
  store ptr %this, ptr %this.addr, align 8
  %this1 = load ptr, ptr %this.addr, align 8
  call void @_ZN6icu_7511ReplaceableC2Ev(ptr noundef nonnull align 8 dereferenceable(8) %this1)
  store ptr getelementptr inbounds ({ [13 x ptr] }, ptr @_ZTVN6icu_7513UnicodeStringE, i32 0, i32 0, i32 2), ptr %this1, align 8
  %fUnion2 = getelementptr inbounds %"class.icu_75::UnicodeString", ptr %this1, i32 0, i32 1
  %fLengthAndFlags = getelementptr inbounds %struct.anon, ptr %fUnion2, i32 0, i32 0
  store i16 2, ptr %fLengthAndFlags, align 8
  ret void
}

; Function Attrs: mustprogress uwtable
define linkonce_odr void @_ZN6icu_7511ICU_Utility15makeBogusStringEv(ptr noalias sret(%"class.icu_75::UnicodeString") align 8 %agg.result) #1 comdat align 2 personality ptr @__gxx_personality_v0 {
entry:
  %result.ptr = alloca ptr, align 8
  %nrvo = alloca i1, align 1
  %exn.slot = alloca ptr, align 8
  %ehselector.slot = alloca i32, align 4
  store ptr %agg.result, ptr %result.ptr, align 8
  store i1 false, ptr %nrvo, align 1
  call void @_ZN6icu_7513UnicodeStringC2Ev(ptr noundef nonnull align 8 dereferenceable(64) %agg.result)
  invoke void @_ZN6icu_7513UnicodeString10setToBogusEv(ptr noundef nonnull align 8 dereferenceable(64) %agg.result)
          to label %invoke.cont unwind label %lpad

invoke.cont:                                      ; preds = %entry
  store i1 true, ptr %nrvo, align 1
  %nrvo.val = load i1, ptr %nrvo, align 1
  br i1 %nrvo.val, label %nrvo.skipdtor, label %nrvo.unused

lpad:                                             ; preds = %entry
  %0 = landingpad { ptr, i32 }
          cleanup
  %1 = extractvalue { ptr, i32 } %0, 0
  store ptr %1, ptr %exn.slot, align 8
  %2 = extractvalue { ptr, i32 } %0, 1
  store i32 %2, ptr %ehselector.slot, align 4
  call void @_ZN6icu_7513UnicodeStringD1Ev(ptr noundef nonnull align 8 dereferenceable(64) %agg.result) #14
  br label %eh.resume

nrvo.unused:                                      ; preds = %invoke.cont
  call void @_ZN6icu_7513UnicodeStringD1Ev(ptr noundef nonnull align 8 dereferenceable(64) %agg.result) #14
  br label %nrvo.skipdtor

nrvo.skipdtor:                                    ; preds = %nrvo.unused, %invoke.cont
  ret void

eh.resume:                                        ; preds = %lpad
  %exn = load ptr, ptr %exn.slot, align 8
  %sel = load i32, ptr %ehselector.slot, align 4
  %lpad.val = insertvalue { ptr, i32 } poison, ptr %exn, 0
  %lpad.val1 = insertvalue { ptr, i32 } %lpad.val, i32 %sel, 1
  resume { ptr, i32 } %lpad.val1
}

; Function Attrs: mustprogress nounwind uwtable
define internal noundef signext i8 @_ZL9U_FAILURE10UErrorCode(i32 noundef %code) #0 {
entry:
  %code.addr = alloca i32, align 4
  store i32 %code, ptr %code.addr, align 4
  %0 = load i32, ptr %code.addr, align 4
  %cmp = icmp sgt i32 %0, 0
  %conv = zext i1 %cmp to i8
  ret i8 %conv
}

; Function Attrs: mustprogress uwtable
define void @_ZN6icu_756number4impl15LongNameHandler14getUnitPatternERKNS_6LocaleERKNS_11MeasureUnitE16UNumberUnitWidthNS_14StandardPlural4FormER10UErrorCode(ptr noalias sret(%"class.icu_75::UnicodeString") align 8 %agg.result, ptr noundef nonnull align 8 dereferenceable(217) %loc, ptr noundef nonnull align 8 dereferenceable(19) %unit, i32 noundef %width, i32 noundef %pluralForm, ptr noundef nonnull align 4 dereferenceable(4) %status) #1 align 2 personality ptr @__gxx_personality_v0 {
entry:
  %result.ptr = alloca ptr, align 8
  %loc.addr = alloca ptr, align 8
  %unit.addr = alloca ptr, align 8
  %width.addr = alloca i32, align 4
  %pluralForm.addr = alloca i32, align 4
  %status.addr = alloca ptr, align 8
  %simpleFormats = alloca [11 x %"class.icu_75::UnicodeString"], align 16
  %exn.slot = alloca ptr, align 8
  %ehselector.slot = alloca i32, align 4
  %cleanup.dest.slot = alloca i32, align 4
  store ptr %agg.result, ptr %result.ptr, align 8
  store ptr %loc, ptr %loc.addr, align 8
  store ptr %unit, ptr %unit.addr, align 8
  store i32 %width, ptr %width.addr, align 4
  store i32 %pluralForm, ptr %pluralForm.addr, align 4
  store ptr %status, ptr %status.addr, align 8
  %0 = load ptr, ptr %status.addr, align 8
  %1 = load i32, ptr %0, align 4
  %call = call noundef signext i8 @_ZL9U_FAILURE10UErrorCode(i32 noundef %1)
  %tobool = icmp ne i8 %call, 0
  br i1 %tobool, label %if.then, label %if.end

if.then:                                          ; preds = %entry
  call void @_ZN6icu_7511ICU_Utility15makeBogusStringEv(ptr sret(%"class.icu_75::UnicodeString") align 8 %agg.result)
  br label %return

if.end:                                           ; preds = %entry
  %array.begin = getelementptr inbounds [11 x %"class.icu_75::UnicodeString"], ptr %simpleFormats, i32 0, i32 0
  %arrayctor.end = getelementptr inbounds %"class.icu_75::UnicodeString", ptr %array.begin, i64 11
  br label %arrayctor.loop

arrayctor.loop:                                   ; preds = %invoke.cont, %if.end
  %arrayctor.cur = phi ptr [ %array.begin, %if.end ], [ %arrayctor.next, %invoke.cont ]
  invoke void @_ZN6icu_7513UnicodeStringC2Ev(ptr noundef nonnull align 8 dereferenceable(64) %arrayctor.cur)
          to label %invoke.cont unwind label %lpad

invoke.cont:                                      ; preds = %arrayctor.loop
  %arrayctor.next = getelementptr inbounds %"class.icu_75::UnicodeString", ptr %arrayctor.cur, i64 1
  %arrayctor.done = icmp eq ptr %arrayctor.next, %arrayctor.end
  br i1 %arrayctor.done, label %arrayctor.cont, label %arrayctor.loop

arrayctor.cont:                                   ; preds = %invoke.cont
  %2 = load ptr, ptr %loc.addr, align 8
  %3 = load ptr, ptr %unit.addr, align 8
  %arraydecay = getelementptr inbounds [11 x %"class.icu_75::UnicodeString"], ptr %simpleFormats, i64 0, i64 0
  %4 = load ptr, ptr %status.addr, align 8
  invoke void @_ZN12_GLOBAL__N_114getMeasureDataERKN6icu_756LocaleERKNS0_11MeasureUnitERK16UNumberUnitWidthPKcPNS0_13UnicodeStringER10UErrorCode(ptr noundef nonnull align 8 dereferenceable(217) %2, ptr noundef nonnull align 8 dereferenceable(19) %3, ptr noundef nonnull align 4 dereferenceable(4) %width.addr, ptr noundef @.str, ptr noundef %arraydecay, ptr noundef nonnull align 4 dereferenceable(4) %4)
          to label %invoke.cont3 unwind label %lpad2

invoke.cont3:                                     ; preds = %arrayctor.cont
  %5 = load ptr, ptr %status.addr, align 8
  %6 = load i32, ptr %5, align 4
  %call5 = invoke noundef signext i8 @_ZL9U_FAILURE10UErrorCode(i32 noundef %6)
          to label %invoke.cont4 unwind label %lpad2

invoke.cont4:                                     ; preds = %invoke.cont3
  %tobool6 = icmp ne i8 %call5, 0
  br i1 %tobool6, label %if.then7, label %if.end9

if.then7:                                         ; preds = %invoke.cont4
  invoke void @_ZN6icu_7511ICU_Utility15makeBogusStringEv(ptr sret(%"class.icu_75::UnicodeString") align 8 %agg.result)
          to label %invoke.cont8 unwind label %lpad2

invoke.cont8:                                     ; preds = %if.then7
  store i32 1, ptr %cleanup.dest.slot, align 4
  br label %cleanup

lpad:                                             ; preds = %arrayctor.loop
  %7 = landingpad { ptr, i32 }
          cleanup
  %8 = extractvalue { ptr, i32 } %7, 0
  store ptr %8, ptr %exn.slot, align 8
  %9 = extractvalue { ptr, i32 } %7, 1
  store i32 %9, ptr %ehselector.slot, align 4
  %arraydestroy.isempty = icmp eq ptr %array.begin, %arrayctor.cur
  br i1 %arraydestroy.isempty, label %arraydestroy.done1, label %arraydestroy.body

arraydestroy.body:                                ; preds = %arraydestroy.body, %lpad
  %arraydestroy.elementPast = phi ptr [ %arrayctor.cur, %lpad ], [ %arraydestroy.element, %arraydestroy.body ]
  %arraydestroy.element = getelementptr inbounds %"class.icu_75::UnicodeString", ptr %arraydestroy.elementPast, i64 -1
  call void @_ZN6icu_7513UnicodeStringD1Ev(ptr noundef nonnull align 8 dereferenceable(64) %arraydestroy.element) #14
  %arraydestroy.done = icmp eq ptr %arraydestroy.element, %array.begin
  br i1 %arraydestroy.done, label %arraydestroy.done1, label %arraydestroy.body

arraydestroy.done1:                               ; preds = %arraydestroy.body, %lpad
  br label %eh.resume

lpad2:                                            ; preds = %cond.end, %if.end9, %if.then7, %invoke.cont3, %arrayctor.cont
  %10 = landingpad { ptr, i32 }
          cleanup
  %11 = extractvalue { ptr, i32 } %10, 0
  store ptr %11, ptr %exn.slot, align 8
  %12 = extractvalue { ptr, i32 } %10, 1
  store i32 %12, ptr %ehselector.slot, align 4
  %array.begin23 = getelementptr inbounds [11 x %"class.icu_75::UnicodeString"], ptr %simpleFormats, i32 0, i32 0
  %13 = getelementptr inbounds %"class.icu_75::UnicodeString", ptr %array.begin23, i64 11
  br label %arraydestroy.body24

if.end9:                                          ; preds = %invoke.cont4
  %14 = load i32, ptr %pluralForm.addr, align 4
  %idxprom = zext i32 %14 to i64
  %arrayidx = getelementptr inbounds [11 x %"class.icu_75::UnicodeString"], ptr %simpleFormats, i64 0, i64 %idxprom
  %call11 = invoke noundef signext i8 @_ZNK6icu_7513UnicodeString7isBogusEv(ptr noundef nonnull align 8 dereferenceable(64) %arrayidx)
          to label %invoke.cont10 unwind label %lpad2

invoke.cont10:                                    ; preds = %if.end9
  %tobool12 = icmp ne i8 %call11, 0
  br i1 %tobool12, label %cond.false, label %cond.true

cond.true:                                        ; preds = %invoke.cont10
  %15 = load i32, ptr %pluralForm.addr, align 4
  %idxprom13 = zext i32 %15 to i64
  %arrayidx14 = getelementptr inbounds [11 x %"class.icu_75::UnicodeString"], ptr %simpleFormats, i64 0, i64 %idxprom13
  br label %cond.end

cond.false:                                       ; preds = %invoke.cont10
  %arrayidx15 = getelementptr inbounds [11 x %"class.icu_75::UnicodeString"], ptr %simpleFormats, i64 0, i64 5
  br label %cond.end

cond.end:                                         ; preds = %cond.false, %cond.true
  %cond-lvalue = phi ptr [ %arrayidx14, %cond.true ], [ %arrayidx15, %cond.false ]
  invoke void @_ZN6icu_7513UnicodeStringC1ERKS0_(ptr noundef nonnull align 8 dereferenceable(64) %agg.result, ptr noundef nonnull align 8 dereferenceable(64) %cond-lvalue)
          to label %invoke.cont16 unwind label %lpad2

invoke.cont16:                                    ; preds = %cond.end
  store i32 1, ptr %cleanup.dest.slot, align 4
  br label %cleanup

cleanup:                                          ; preds = %invoke.cont16, %invoke.cont8
  %array.begin17 = getelementptr inbounds [11 x %"class.icu_75::UnicodeString"], ptr %simpleFormats, i32 0, i32 0
  %16 = getelementptr inbounds %"class.icu_75::UnicodeString", ptr %array.begin17, i64 11
  br label %arraydestroy.body18

arraydestroy.body18:                              ; preds = %arraydestroy.body18, %cleanup
  %arraydestroy.elementPast19 = phi ptr [ %16, %cleanup ], [ %arraydestroy.element20, %arraydestroy.body18 ]
  %arraydestroy.element20 = getelementptr inbounds %"class.icu_75::UnicodeString", ptr %arraydestroy.elementPast19, i64 -1
  call void @_ZN6icu_7513UnicodeStringD1Ev(ptr noundef nonnull align 8 dereferenceable(64) %arraydestroy.element20) #14
  %arraydestroy.done21 = icmp eq ptr %arraydestroy.element20, %array.begin17
  br i1 %arraydestroy.done21, label %arraydestroy.done22, label %arraydestroy.body18

arraydestroy.done22:                              ; preds = %arraydestroy.body18
  br label %return

arraydestroy.body24:                              ; preds = %arraydestroy.body24, %lpad2
  %arraydestroy.elementPast25 = phi ptr [ %13, %lpad2 ], [ %arraydestroy.element26, %arraydestroy.body24 ]
  %arraydestroy.element26 = getelementptr inbounds %"class.icu_75::UnicodeString", ptr %arraydestroy.elementPast25, i64 -1
  call void @_ZN6icu_7513UnicodeStringD1Ev(ptr noundef nonnull align 8 dereferenceable(64) %arraydestroy.element26) #14
  %arraydestroy.done27 = icmp eq ptr %arraydestroy.element26, %array.begin23
  br i1 %arraydestroy.done27, label %arraydestroy.done28, label %arraydestroy.body24

arraydestroy.done28:                              ; preds = %arraydestroy.body24
  br label %eh.resume

return:                                           ; preds = %arraydestroy.done22, %if.then
  ret void

eh.resume:                                        ; preds = %arraydestroy.done28, %arraydestroy.done1
  %exn = load ptr, ptr %exn.slot, align 8
  %sel = load i32, ptr %ehselector.slot, align 4
  %lpad.val = insertvalue { ptr, i32 } poison, ptr %exn, 0
  %lpad.val29 = insertvalue { ptr, i32 } %lpad.val, i32 %sel, 1
  resume { ptr, i32 } %lpad.val29
}