; Function Attrs: mustprogress uwtable
define void @_ZN6icu_756number4impl15LongNameHandler14getUnitPatternERKNS_6LocaleERKNS_11MeasureUnitE16UNumberUnitWidthNS_14StandardPlural4FormER10UErrorCode(ptr noalias sret(%"class.icu_75::UnicodeString") align 8 %agg.result, ptr nocapture noundef nonnull readonly align 8 dereferenceable(217) %loc, ptr noundef nonnull align 8 dereferenceable(19) %unit, i32 noundef %width, i32 noundef %pluralForm, ptr noundef nonnull align 4 dereferenceable(4) %status) local_unnamed_addr #1 align 2 personality ptr @__gxx_personality_v0 {
entry:
  %width.addr = alloca i32, align 4
  %simpleFormats = alloca [11 x %"class.icu_75::UnicodeString"], align 16
  store i32 %width, ptr %width.addr, align 4
  %0 = load i32, ptr %status, align 4
  %cmp.i = icmp slt i32 %0, 1
  br i1 %cmp.i, label %invoke.cont, label %if.then

if.then:                                          ; preds = %entry
  store ptr getelementptr inbounds ({ [13 x ptr] }, ptr @_ZTVN6icu_7513UnicodeStringE, i64 0, i32 0, i64 2), ptr %agg.result, align 8, !alias.scope !57
  %fUnion2.i.i = getelementptr inbounds i8, ptr %agg.result, i64 8
  store i16 2, ptr %fUnion2.i.i, align 8, !alias.scope !57
  invoke void @_ZN6icu_7513UnicodeString10setToBogusEv(ptr noundef nonnull align 8 dereferenceable(64) %agg.result)
          to label %return unwind label %lpad.i

common.resume:                                    ; preds = %arraydestroy.body24, %lpad.i
  %common.resume.op = phi { ptr, i32 } [ %1, %lpad.i ], [ %eh.lpad-body, %arraydestroy.body24 ]
  resume { ptr, i32 } %common.resume.op

lpad.i:                                           ; preds = %if.then
  %1 = landingpad { ptr, i32 }
          cleanup
  tail call void @_ZN6icu_7513UnicodeStringD1Ev(ptr noundef nonnull align 8 dereferenceable(64) %agg.result) #18
  br label %common.resume

invoke.cont:                                      ; preds = %entry, %invoke.cont
  %arrayctor.cur.idx = phi i64 [ %arrayctor.cur.add, %invoke.cont ], [ 0, %entry ]
  %arrayctor.cur.ptr = getelementptr inbounds i8, ptr %simpleFormats, i64 %arrayctor.cur.idx
  store ptr getelementptr inbounds ({ [13 x ptr] }, ptr @_ZTVN6icu_7513UnicodeStringE, i64 0, i32 0, i64 2), ptr %arrayctor.cur.ptr, align 16
  %fUnion2.i = getelementptr inbounds i8, ptr %arrayctor.cur.ptr, i64 8
  store i16 2, ptr %fUnion2.i, align 8
  %arrayctor.cur.add = add nuw nsw i64 %arrayctor.cur.idx, 64
  %arrayctor.done = icmp eq i64 %arrayctor.cur.add, 704
  br i1 %arrayctor.done, label %arrayctor.cont, label %invoke.cont

arrayctor.cont:                                   ; preds = %invoke.cont
  %arrayctor.end = getelementptr inbounds i8, ptr %simpleFormats, i64 704
  invoke fastcc void @_ZN12_GLOBAL__N_114getMeasureDataERKN6icu_756LocaleERKNS0_11MeasureUnitERK16UNumberUnitWidthPKcPNS0_13UnicodeStringER10UErrorCode(ptr noundef nonnull align 8 dereferenceable(217) %loc, ptr noundef nonnull align 8 dereferenceable(19) %unit, ptr noundef nonnull align 4 dereferenceable(4) %width.addr, ptr noundef nonnull @.str, ptr noundef nonnull %simpleFormats, ptr noundef nonnull align 4 dereferenceable(4) %status)
          to label %invoke.cont3 unwind label %lpad2

invoke.cont3:                                     ; preds = %arrayctor.cont
  %2 = load i32, ptr %status, align 4
  %cmp.i5 = icmp slt i32 %2, 1
  br i1 %cmp.i5, label %if.end9, label %if.then7

if.then7:                                         ; preds = %invoke.cont3
  store ptr getelementptr inbounds ({ [13 x ptr] }, ptr @_ZTVN6icu_7513UnicodeStringE, i64 0, i32 0, i64 2), ptr %agg.result, align 8, !alias.scope !60
  %fUnion2.i.i7 = getelementptr inbounds i8, ptr %agg.result, i64 8
  store i16 2, ptr %fUnion2.i.i7, align 8, !alias.scope !60
  invoke void @_ZN6icu_7513UnicodeString10setToBogusEv(ptr noundef nonnull align 8 dereferenceable(64) %agg.result)
          to label %arraydestroy.body18.preheader unwind label %lpad.i8

lpad.i8:                                          ; preds = %if.then7
  %3 = landingpad { ptr, i32 }
          cleanup
  call void @_ZN6icu_7513UnicodeStringD1Ev(ptr noundef nonnull align 8 dereferenceable(64) %agg.result) #18
  br label %lpad2.body

lpad2:                                            ; preds = %if.end9, %arrayctor.cont
  %4 = landingpad { ptr, i32 }
          cleanup
  br label %lpad2.body

lpad2.body:                                       ; preds = %lpad.i8, %lpad2
  %eh.lpad-body = phi { ptr, i32 } [ %4, %lpad2 ], [ %3, %lpad.i8 ]
  br label %arraydestroy.body24

if.end9:                                          ; preds = %invoke.cont3
  %idxprom = zext i32 %pluralForm to i64
  %arrayidx = getelementptr inbounds [11 x %"class.icu_75::UnicodeString"], ptr %simpleFormats, i64 0, i64 %idxprom
  %fUnion.i = getelementptr inbounds i8, ptr %arrayidx, i64 8
  %5 = load i16, ptr %fUnion.i, align 8
  %conv2.i10 = and i16 %5, 1
  %tobool12.not = icmp eq i16 %conv2.i10, 0
  %arrayidx15 = getelementptr inbounds i8, ptr %simpleFormats, i64 320
  %cond-lvalue = select i1 %tobool12.not, ptr %arrayidx, ptr %arrayidx15
  invoke void @_ZN6icu_7513UnicodeStringC1ERKS0_(ptr noundef nonnull align 8 dereferenceable(64) %agg.result, ptr noundef nonnull align 8 dereferenceable(64) %cond-lvalue)
          to label %arraydestroy.body18.preheader unwind label %lpad2

arraydestroy.body18.preheader:                    ; preds = %if.then7, %if.end9
  br label %arraydestroy.body18

arraydestroy.body18:                              ; preds = %arraydestroy.body18.preheader, %arraydestroy.body18
  %arraydestroy.elementPast19 = phi ptr [ %arraydestroy.element20, %arraydestroy.body18 ], [ %arrayctor.end, %arraydestroy.body18.preheader ]
  %arraydestroy.element20 = getelementptr inbounds i8, ptr %arraydestroy.elementPast19, i64 -64
  call void @_ZN6icu_7513UnicodeStringD1Ev(ptr noundef nonnull align 8 dereferenceable(64) %arraydestroy.element20) #18
  %arraydestroy.done21 = icmp eq ptr %arraydestroy.element20, %simpleFormats
  br i1 %arraydestroy.done21, label %return, label %arraydestroy.body18

arraydestroy.body24:                              ; preds = %arraydestroy.body24, %lpad2.body
  %arraydestroy.elementPast25 = phi ptr [ %arrayctor.end, %lpad2.body ], [ %arraydestroy.element26, %arraydestroy.body24 ]
  %arraydestroy.element26 = getelementptr inbounds i8, ptr %arraydestroy.elementPast25, i64 -64
  call void @_ZN6icu_7513UnicodeStringD1Ev(ptr noundef nonnull align 8 dereferenceable(64) %arraydestroy.element26) #18
  %arraydestroy.done27 = icmp eq ptr %arraydestroy.element26, %simpleFormats
  br i1 %arraydestroy.done27, label %common.resume, label %arraydestroy.body24

return:                                           ; preds = %arraydestroy.body18, %if.then
  ret void
}